target datalayout = "e-m:e-p270:32:32-p271:32:32-p272:64:64-i64:64-i128:128-f80:128-n8:16:32:64-S128"
target triple = "x86_64-pc-linux-gnu"

%struct.mbedtls_ecp_point = type { %struct.mbedtls_mpi, %struct.mbedtls_mpi, %struct.mbedtls_mpi }
%struct.mbedtls_mpi = type { ptr, i16, i16 }
%struct.mbedtls_ecp_group = type { i32, %struct.mbedtls_mpi, %struct.mbedtls_mpi, %struct.mbedtls_mpi, %struct.mbedtls_ecp_point, %struct.mbedtls_mpi, i64, i64, i32, ptr, ptr, ptr, ptr, ptr, i64 }
%struct.mbedtls_hmac_drbg_context = type { %struct.mbedtls_md_context_t, [64 x i8], i32, i64, i32, i32, ptr, ptr }
%struct.mbedtls_md_context_t = type { ptr, ptr, ptr }

; Function Attrs: nounwind uwtable
define internal i32 @derive_mpi(ptr noundef %0, ptr noundef %1, ptr noundef %2, i64 noundef %3) #0 {
  %5 = alloca ptr, align 8
  %6 = alloca ptr, align 8
  %7 = alloca ptr, align 8
  %8 = alloca i64, align 8
  %9 = alloca i32, align 4
  %10 = alloca i64, align 8
  %11 = alloca i64, align 8
  store ptr %0, ptr %5, align 8, !tbaa !7
  store ptr %1, ptr %6, align 8, !tbaa !10
  store ptr %2, ptr %7, align 8, !tbaa !12
  store i64 %3, ptr %8, align 8, !tbaa !14
  call void @llvm.lifetime.start.p0(i64 4, ptr %9) #6
  store i32 -110, ptr %9, align 4, !tbaa !3
  call void @llvm.lifetime.start.p0(i64 8, ptr %10) #6
  %12 = load ptr, ptr %5, align 8, !tbaa !7
  %13 = getelementptr inbounds nuw %struct.mbedtls_ecp_group, ptr %12, i32 0, i32 7
  %14 = load i64, ptr %13, align 8, !tbaa !30
  %15 = add i64 %14, 7
  %16 = udiv i64 %15, 8
  store i64 %16, ptr %10, align 8, !tbaa !14
  call void @llvm.lifetime.start.p0(i64 8, ptr %11) #6
  %17 = load i64, ptr %8, align 8, !tbaa !14
  %18 = load i64, ptr %10, align 8, !tbaa !14
  %19 = icmp ugt i64 %17, %18
  br i1 %19, label %20, label %22

20:                                               ; preds = %4
  %21 = load i64, ptr %10, align 8, !tbaa !14
  br label %24

22:                                               ; preds = %4
  %23 = load i64, ptr %8, align 8, !tbaa !14
  br label %24

24:                                               ; preds = %22, %20
  %25 = phi i64 [ %21, %20 ], [ %23, %22 ]
  store i64 %25, ptr %11, align 8, !tbaa !14
  br label %26

26:                                               ; preds = %24
  %27 = load ptr, ptr %6, align 8, !tbaa !10
  %28 = load ptr, ptr %7, align 8, !tbaa !12
  %29 = load i64, ptr %11, align 8, !tbaa !14
  %30 = call i32 @mbedtls_mpi_read_binary(ptr noundef %27, ptr noundef %28, i64 noundef %29)
  store i32 %30, ptr %9, align 4, !tbaa !3
  %31 = icmp ne i32 %30, 0
  br i1 %31, label %32, label %33

32:                                               ; preds = %26
  br label %76

33:                                               ; preds = %26
  br label %34

34:                                               ; preds = %33
  br label %35

35:                                               ; preds = %34
  %36 = load i64, ptr %11, align 8, !tbaa !14
  %37 = mul i64 %36, 8
  %38 = load ptr, ptr %5, align 8, !tbaa !7
  %39 = getelementptr inbounds nuw %struct.mbedtls_ecp_group, ptr %38, i32 0, i32 7
  %40 = load i64, ptr %39, align 8, !tbaa !30
  %41 = icmp ugt i64 %37, %40
  br i1 %41, label %42, label %57

42:                                               ; preds = %35
  br label %43

43:                                               ; preds = %42
  %44 = load ptr, ptr %6, align 8, !tbaa !10
  %45 = load i64, ptr %11, align 8, !tbaa !14
  %46 = mul i64 %45, 8
  %47 = load ptr, ptr %5, align 8, !tbaa !7
  %48 = getelementptr inbounds nuw %struct.mbedtls_ecp_group, ptr %47, i32 0, i32 7
  %49 = load i64, ptr %48, align 8, !tbaa !30
  %50 = sub i64 %46, %49
  %51 = call i32 @mbedtls_mpi_shift_r(ptr noundef %44, i64 noundef %50)
  store i32 %51, ptr %9, align 4, !tbaa !3
  %52 = icmp ne i32 %51, 0
  br i1 %52, label %53, label %54

53:                                               ; preds = %43
  br label %76

54:                                               ; preds = %43
  br label %55

55:                                               ; preds = %54
  br label %56

56:                                               ; preds = %55
  br label %57

57:                                               ; preds = %56, %35
  %58 = load ptr, ptr %6, align 8, !tbaa !10
  %59 = load ptr, ptr %5, align 8, !tbaa !7
  %60 = getelementptr inbounds nuw %struct.mbedtls_ecp_group, ptr %59, i32 0, i32 5
  %61 = call i32 @mbedtls_mpi_cmp_mpi(ptr noundef %58, ptr noundef %60)
  %62 = icmp sge i32 %61, 0
  br i1 %62, label %63, label %75

63:                                               ; preds = %57
  br label %64

64:                                               ; preds = %63
  %65 = load ptr, ptr %6, align 8, !tbaa !10
  %66 = load ptr, ptr %6, align 8, !tbaa !10
  %67 = load ptr, ptr %5, align 8, !tbaa !7
  %68 = getelementptr inbounds nuw %struct.mbedtls_ecp_group, ptr %67, i32 0, i32 5
  %69 = call i32 @mbedtls_mpi_sub_mpi(ptr noundef %65, ptr noundef %66, ptr noundef %68)
  store i32 %69, ptr %9, align 4, !tbaa !3
  %70 = icmp ne i32 %69, 0
  br i1 %70, label %71, label %72

71:                                               ; preds = %64
  br label %76

72:                                               ; preds = %64
  br label %73

73:                                               ; preds = %72
  br label %74

74:                                               ; preds = %73
  br label %75

75:                                               ; preds = %74, %57
  br label %76

76:                                               ; preds = %75, %71, %53, %32
  %77 = load i32, ptr %9, align 4, !tbaa !3
  call void @llvm.lifetime.end.p0(i64 8, ptr %11) #6
  call void @llvm.lifetime.end.p0(i64 8, ptr %10) #6
  call void @llvm.lifetime.end.p0(i64 4, ptr %9) #6
  ret i32 %77
}

; Function Attrs: nounwind uwtable
define hidden i32 @mbedtls_ecdsa_sign_det_restartable(ptr noundef %0, ptr noundef %1, ptr noundef %2, ptr noundef %3, ptr noundef %4, i64 noundef %5, i32 noundef %6, ptr noundef %7, ptr noundef %8, ptr noundef %9) #0 {
  %11 = alloca i32, align 4
  %12 = alloca ptr, align 8
  %13 = alloca ptr, align 8
  %14 = alloca ptr, align 8
  %15 = alloca ptr, align 8
  %16 = alloca ptr, align 8
  %17 = alloca i64, align 8
  %18 = alloca i32, align 4
  %19 = alloca ptr, align 8
  %20 = alloca ptr, align 8
  %21 = alloca ptr, align 8
  %22 = alloca i32, align 4
  %23 = alloca %struct.mbedtls_hmac_drbg_context, align 8
  %24 = alloca ptr, align 8
  %25 = alloca [132 x i8], align 16
  %26 = alloca i64, align 8
  %27 = alloca ptr, align 8
  %28 = alloca %struct.mbedtls_mpi, align 8
  %29 = alloca i32, align 4
  store ptr %0, ptr %12, align 8, !tbaa !7
  store ptr %1, ptr %13, align 8, !tbaa !10
  store ptr %2, ptr %14, align 8, !tbaa !10
  store ptr %3, ptr %15, align 8, !tbaa !10
  store ptr %4, ptr %16, align 8, !tbaa !12
  store i64 %5, ptr %17, align 8, !tbaa !14
  store i32 %6, ptr %18, align 4, !tbaa !3
  store ptr %7, ptr %19, align 8, !tbaa !16
  store ptr %8, ptr %20, align 8, !tbaa !16
  store ptr %9, ptr %21, align 8, !tbaa !16
  call void @llvm.lifetime.start.p0(i64 4, ptr %22) #6
  store i32 -110, ptr %22, align 4, !tbaa !3
  call void @llvm.lifetime.start.p0(i64 128, ptr %23) #6
  call void @llvm.lifetime.start.p0(i64 8, ptr %24) #6
  store ptr %23, ptr %24, align 8, !tbaa !31
  call void @llvm.lifetime.start.p0(i64 132, ptr %25) #6
  call void @llvm.lifetime.start.p0(i64 8, ptr %26) #6
  %30 = load ptr, ptr %12, align 8, !tbaa !7
  %31 = getelementptr inbounds nuw %struct.mbedtls_ecp_group, ptr %30, i32 0, i32 7
  %32 = load i64, ptr %31, align 8, !tbaa !30
  %33 = add i64 %32, 7
  %34 = udiv i64 %33, 8
  store i64 %34, ptr %26, align 8, !tbaa !14
  call void @llvm.lifetime.start.p0(i64 8, ptr %27) #6
  call void @llvm.lifetime.start.p0(i64 16, ptr %28) #6
  %35 = load i32, ptr %18, align 4, !tbaa !3
  %36 = call ptr @mbedtls_md_info_from_type(i32 noundef %35)
  store ptr %36, ptr %27, align 8, !tbaa !33
  %37 = icmp eq ptr %36, null
  br i1 %37, label %38, label %39

38:                                               ; preds = %10
  store i32 -20352, ptr %11, align 4
  store i32 1, ptr %29, align 4
  br label %96

39:                                               ; preds = %10
  call void @mbedtls_mpi_init(ptr noundef %28)
  call void @mbedtls_hmac_drbg_init(ptr noundef %23)
  br label %40

40:                                               ; preds = %39
  %41 = load ptr, ptr %15, align 8, !tbaa !10
  %42 = getelementptr inbounds [132 x i8], ptr %25, i64 0, i64 0
  %43 = load i64, ptr %26, align 8, !tbaa !14
  %44 = call i32 @mbedtls_mpi_write_binary(ptr noundef %41, ptr noundef %42, i64 noundef %43)
  store i32 %44, ptr %22, align 4, !tbaa !3
  %45 = icmp ne i32 %44, 0
  br i1 %45, label %46, label %47

46:                                               ; preds = %40
  br label %94

47:                                               ; preds = %40
  br label %48

48:                                               ; preds = %47
  br label %49

49:                                               ; preds = %48
  br label %50

50:                                               ; preds = %49
  %51 = load ptr, ptr %12, align 8, !tbaa !7
  %52 = load ptr, ptr %16, align 8, !tbaa !12
  %53 = load i64, ptr %17, align 8, !tbaa !14
  %54 = call i32 @derive_mpi(ptr noundef %51, ptr noundef %28, ptr noundef %52, i64 noundef %53)
  store i32 %54, ptr %22, align 4, !tbaa !3
  %55 = icmp ne i32 %54, 0
  br i1 %55, label %56, label %57

56:                                               ; preds = %50
  br label %94

57:                                               ; preds = %50
  br label %58

58:                                               ; preds = %57
  br label %59

59:                                               ; preds = %58
  br label %60

60:                                               ; preds = %59
  %61 = getelementptr inbounds [132 x i8], ptr %25, i64 0, i64 0
  %62 = load i64, ptr %26, align 8, !tbaa !14
  %63 = getelementptr inbounds nuw i8, ptr %61, i64 %62
  %64 = load i64, ptr %26, align 8, !tbaa !14
  %65 = call i32 @mbedtls_mpi_write_binary(ptr noundef %28, ptr noundef %63, i64 noundef %64)
  store i32 %65, ptr %22, align 4, !tbaa !3
  %66 = icmp ne i32 %65, 0
  br i1 %66, label %67, label %68

67:                                               ; preds = %60
  br label %94

68:                                               ; preds = %60
  br label %69

69:                                               ; preds = %68
  br label %70

70:                                               ; preds = %69
  br label %71

71:                                               ; preds = %70
  %72 = load ptr, ptr %24, align 8, !tbaa !31
  %73 = load ptr, ptr %27, align 8, !tbaa !33
  %74 = getelementptr inbounds [132 x i8], ptr %25, i64 0, i64 0
  %75 = load i64, ptr %26, align 8, !tbaa !14
  %76 = mul i64 2, %75
  %77 = call i32 @mbedtls_hmac_drbg_seed_buf(ptr noundef %72, ptr noundef %73, ptr noundef %74, i64 noundef %76)
  store i32 %77, ptr %22, align 4, !tbaa !3
  %78 = icmp ne i32 %77, 0
  br i1 %78, label %79, label %80

79:                                               ; preds = %71
  br label %94

80:                                               ; preds = %71
  br label %81

81:                                               ; preds = %80
  br label %82

82:                                               ; preds = %81
  %83 = load ptr, ptr %12, align 8, !tbaa !7
  %84 = load ptr, ptr %13, align 8, !tbaa !10
  %85 = load ptr, ptr %14, align 8, !tbaa !10
  %86 = load ptr, ptr %15, align 8, !tbaa !10
  %87 = load ptr, ptr %16, align 8, !tbaa !12
  %88 = load i64, ptr %17, align 8, !tbaa !14
  %89 = load ptr, ptr %24, align 8, !tbaa !31
  %90 = load ptr, ptr %19, align 8, !tbaa !16
  %91 = load ptr, ptr %20, align 8, !tbaa !16
  %92 = load ptr, ptr %21, align 8, !tbaa !16
  %93 = call i32 @mbedtls_ecdsa_sign_restartable(ptr noundef %83, ptr noundef %84, ptr noundef %85, ptr noundef %86, ptr noundef %87, i64 noundef %88, ptr noundef @mbedtls_hmac_drbg_random, ptr noundef %89, ptr noundef %90, ptr noundef %91, ptr noundef %92)
  store i32 %93, ptr %22, align 4, !tbaa !3
  br label %94

94:                                               ; preds = %82, %79, %67, %56, %46
  call void @mbedtls_hmac_drbg_free(ptr noundef %23)
  call void @mbedtls_mpi_free(ptr noundef %28)
  %95 = load i32, ptr %22, align 4, !tbaa !3
  store i32 %95, ptr %11, align 4
  store i32 1, ptr %29, align 4
  br label %96

96:                                               ; preds = %94, %38
  call void @llvm.lifetime.end.p0(i64 16, ptr %28) #6
  call void @llvm.lifetime.end.p0(i64 8, ptr %27) #6
  call void @llvm.lifetime.end.p0(i64 8, ptr %26) #6
  call void @llvm.lifetime.end.p0(i64 132, ptr %25) #6
  call void @llvm.lifetime.end.p0(i64 8, ptr %24) #6
  call void @llvm.lifetime.end.p0(i64 128, ptr %23) #6
  call void @llvm.lifetime.end.p0(i64 4, ptr %22) #6
  %97 = load i32, ptr %11, align 4
  ret i32 %97
}