; Function Attrs: nounwind uwtable
define hidden i32 @mbedtls_ecdsa_sign_det_restartable(ptr noundef %0, ptr noundef %1, ptr noundef %2, ptr noundef %3, ptr noundef %4, i64 noundef %5, i32 noundef %6, ptr noundef %7, ptr noundef %8, ptr readnone captures(none) %9) local_unnamed_addr #1 {
  %11 = alloca %struct.mbedtls_hmac_drbg_context, align 8
  %12 = alloca [132 x i8], align 16
  %13 = alloca %struct.mbedtls_mpi, align 8
  call void @llvm.lifetime.start.p0(i64 128, ptr nonnull %11) #7
  call void @llvm.lifetime.start.p0(i64 132, ptr nonnull %12) #7
  %14 = getelementptr inbounds nuw i8, ptr %0, i64 128
  %15 = load i64, ptr %14, align 8, !tbaa !19
  %16 = add i64 %15, 7
  %17 = lshr i64 %16, 3
  call void @llvm.lifetime.start.p0(i64 16, ptr nonnull %13) #7
  %18 = tail call ptr @mbedtls_md_info_from_type(i32 noundef %6) #7
  %19 = icmp eq ptr %18, null
  br i1 %19, label %47, label %20

20:                                               ; preds = %10
  call void @mbedtls_mpi_init(ptr noundef nonnull %13) #7
  call void @mbedtls_hmac_drbg_init(ptr noundef nonnull %11) #7
  %21 = call i32 @mbedtls_mpi_write_binary(ptr noundef %3, ptr noundef nonnull %12, i64 noundef %17) #7
  %.not = icmp eq i32 %21, 0
  br i1 %.not, label %22, label %derive_mpi.exit.thread

22:                                               ; preds = %20
  %23 = load i64, ptr %14, align 8, !tbaa !19
  %24 = add i64 %23, 7
  %25 = lshr i64 %24, 3
  %26 = call i64 @llvm.umin.i64(i64 %5, i64 %25)
  %27 = call i32 @mbedtls_mpi_read_binary(ptr noundef nonnull %13, ptr noundef %4, i64 noundef %26) #7
  %.not.i = icmp eq i32 %27, 0
  br i1 %.not.i, label %28, label %derive_mpi.exit.thread

28:                                               ; preds = %22
  %29 = shl nuw i64 %26, 3
  %30 = load i64, ptr %14, align 8, !tbaa !19
  %31 = icmp ugt i64 %29, %30
  br i1 %31, label %32, label %35

32:                                               ; preds = %28
  %33 = sub nuw i64 %29, %30
  %34 = call i32 @mbedtls_mpi_shift_r(ptr noundef nonnull %13, i64 noundef %33) #7
  %.not24.i = icmp eq i32 %34, 0
  br i1 %.not24.i, label %35, label %derive_mpi.exit.thread

35:                                               ; preds = %32, %28
  %36 = getelementptr inbounds nuw i8, ptr %0, i64 104
  %37 = call i32 @mbedtls_mpi_cmp_mpi(ptr noundef nonnull %13, ptr noundef nonnull %36) #7
  %38 = icmp sgt i32 %37, -1
  br i1 %38, label %derive_mpi.exit, label %derive_mpi.exit.thread34

derive_mpi.exit:                                  ; preds = %35
  %39 = call i32 @mbedtls_mpi_sub_mpi(ptr noundef nonnull %13, ptr noundef nonnull %13, ptr noundef nonnull %36) #7
  %.not29 = icmp eq i32 %39, 0
  br i1 %.not29, label %derive_mpi.exit.thread34, label %derive_mpi.exit.thread

derive_mpi.exit.thread34:                         ; preds = %35, %derive_mpi.exit
  %40 = getelementptr inbounds nuw i8, ptr %12, i64 %17
  %41 = call i32 @mbedtls_mpi_write_binary(ptr noundef nonnull %13, ptr noundef nonnull %40, i64 noundef %17) #7
  %.not30 = icmp eq i32 %41, 0
  br i1 %.not30, label %42, label %derive_mpi.exit.thread

42:                                               ; preds = %derive_mpi.exit.thread34
  %43 = shl nuw nsw i64 %17, 1
  %44 = call i32 @mbedtls_hmac_drbg_seed_buf(ptr noundef nonnull %11, ptr noundef nonnull %18, ptr noundef nonnull %12, i64 noundef %43) #7
  %.not31 = icmp eq i32 %44, 0
  br i1 %.not31, label %45, label %derive_mpi.exit.thread

45:                                               ; preds = %42
  %46 = call i32 @mbedtls_ecdsa_sign_restartable(ptr noundef nonnull %0, ptr noundef %1, ptr noundef %2, ptr noundef %3, ptr noundef %4, i64 noundef %5, ptr noundef nonnull @mbedtls_hmac_drbg_random, ptr noundef nonnull %11, ptr noundef %7, ptr noundef %8, ptr poison)
  br label %derive_mpi.exit.thread

derive_mpi.exit.thread:                           ; preds = %32, %22, %42, %derive_mpi.exit.thread34, %derive_mpi.exit, %20, %45
  %.023 = phi i32 [ %21, %20 ], [ %39, %derive_mpi.exit ], [ %41, %derive_mpi.exit.thread34 ], [ %44, %42 ], [ %46, %45 ], [ %34, %32 ], [ %27, %22 ]
  call void @mbedtls_hmac_drbg_free(ptr noundef nonnull %11) #7
  call void @mbedtls_mpi_free(ptr noundef nonnull %13) #7
  br label %47

47:                                               ; preds = %10, %derive_mpi.exit.thread
  %.0 = phi i32 [ %.023, %derive_mpi.exit.thread ], [ -20352, %10 ]
  call void @llvm.lifetime.end.p0(i64 16, ptr nonnull %13) #7
  call void @llvm.lifetime.end.p0(i64 132, ptr nonnull %12) #7
  call void @llvm.lifetime.end.p0(i64 128, ptr nonnull %11) #7
  ret i32 %.0
}